target datalayout = "e-m:e-p270:32:32-p271:32:32-p272:64:64-i64:64-i128:128-f80:128-n8:16:32:64-S128"
target triple = "x86_64-pc-linux-gnu"

%struct.expert_field = type { i32, i32 }

@ett_ncp = external global i32, align 4
@hf_nds_net = internal global i32 0, align 4
@hf_nds_node = internal global i32 0, align 4
@hf_nds_socket = internal global i32 0, align 4
@hf_add_ref_udp = internal global i32 0, align 4
@hf_add_ref_tcp = internal global i32 0, align 4
@hf_nds_port = internal global i32 0, align 4
@hf_ncp_items_in_packet = internal global i32 0, align 4
@hf_ncp_transport_type = internal global i32 0, align 4
@ei_ncp_address_type = internal global %struct.expert_field zeroinitializer, align 4
@.str.7556 = private unnamed_addr constant [21 x i8] c"Network Address - %u\00", align 1

; Function Attrs: null_pointer_is_valid sspstrong uwtable
define internal void @dissect_ncp_123_17_reply(ptr noundef %0, ptr noundef %1, ptr noundef %2) #0 {
  %4 = alloca ptr, align 8
  %5 = alloca ptr, align 8
  %6 = alloca ptr, align 8
  %7 = alloca ptr, align 8
  %8 = alloca ptr, align 8
  %9 = alloca i32, align 4
  %10 = alloca i32, align 4
  %11 = alloca i32, align 4
  %12 = alloca i16, align 2
  store ptr %0, ptr %4, align 8
  store ptr %1, ptr %5, align 8
  store volatile ptr %2, ptr %6, align 8
  call void @llvm.lifetime.start.p0(i64 8, ptr %7) #13
  call void @llvm.lifetime.start.p0(i64 8, ptr %8) #13
  call void @llvm.lifetime.start.p0(i64 4, ptr %9) #13
  call void @llvm.lifetime.start.p0(i64 4, ptr %10) #13
  call void @llvm.lifetime.start.p0(i64 4, ptr %11) #13
  call void @llvm.lifetime.start.p0(i64 2, ptr %12) #13
  %13 = load ptr, ptr %4, align 8
  %14 = call i32 @tvb_get_letohl(ptr noundef %13, i32 noundef 36)
  store i32 %14, ptr %10, align 4
  %15 = load volatile ptr, ptr %6, align 8
  %16 = load i32, ptr @hf_ncp_items_in_packet, align 4
  %17 = load ptr, ptr %4, align 8
  %18 = call ptr @proto_tree_add_item(ptr noundef %15, i32 noundef %16, ptr noundef %17, i32 noundef 36, i32 noundef 4, i32 noundef -2147483648)
  store i32 40, ptr %9, align 4
  store i16 1, ptr %12, align 2
  br label %19

19:                                               ; preds = %112, %3
  %20 = load i16, ptr %12, align 2
  %21 = zext i16 %20 to i32
  %22 = load i32, ptr %10, align 4
  %23 = icmp ule i32 %21, %22
  br i1 %23, label %24, label %115

24:                                               ; preds = %19
  %25 = load volatile ptr, ptr %6, align 8
  %26 = load ptr, ptr %4, align 8
  %27 = load i32, ptr %9, align 4
  %28 = load i32, ptr @ett_ncp, align 4
  %29 = load i16, ptr %12, align 2
  %30 = zext i16 %29 to i32
  %31 = call ptr (ptr, ptr, i32, i32, i32, ptr, ptr, ...) @proto_tree_add_subtree_format(ptr noundef %25, ptr noundef %26, i32 noundef %27, i32 noundef -1, i32 noundef %28, ptr noundef %8, ptr noundef @.str.7556, i32 noundef %30)
  store ptr %31, ptr %7, align 8
  %32 = load ptr, ptr %4, align 8
  %33 = load i32, ptr %9, align 4
  %34 = call zeroext i8 @tvb_get_uint8(ptr noundef %32, i32 noundef %33)
  %35 = zext i8 %34 to i32
  store i32 %35, ptr %11, align 4
  %36 = load ptr, ptr %7, align 8
  %37 = load i32, ptr @hf_ncp_transport_type, align 4
  %38 = load ptr, ptr %4, align 8
  %39 = load i32, ptr %9, align 4
  %40 = call ptr @proto_tree_add_item(ptr noundef %36, i32 noundef %37, ptr noundef %38, i32 noundef %39, i32 noundef 1, i32 noundef -2147483648)
  %41 = load i32, ptr %9, align 4
  %42 = add i32 %41, 8
  store i32 %42, ptr %9, align 4
  %43 = load i32, ptr %11, align 4
  switch i32 %43, label %92 [
    i32 1, label %44
    i32 5, label %64
    i32 6, label %78
  ]

44:                                               ; preds = %24
  %45 = load ptr, ptr %7, align 8
  %46 = load i32, ptr @hf_nds_net, align 4
  %47 = load ptr, ptr %4, align 8
  %48 = load i32, ptr %9, align 4
  %49 = call ptr @proto_tree_add_item(ptr noundef %45, i32 noundef %46, ptr noundef %47, i32 noundef %48, i32 noundef 4, i32 noundef 0)
  %50 = load ptr, ptr %7, align 8
  %51 = load i32, ptr @hf_nds_node, align 4
  %52 = load ptr, ptr %4, align 8
  %53 = load i32, ptr %9, align 4
  %54 = add i32 %53, 4
  %55 = call ptr @proto_tree_add_item(ptr noundef %50, i32 noundef %51, ptr noundef %52, i32 noundef %54, i32 noundef 6, i32 noundef 0)
  %56 = load ptr, ptr %7, align 8
  %57 = load i32, ptr @hf_nds_socket, align 4
  %58 = load ptr, ptr %4, align 8
  %59 = load i32, ptr %9, align 4
  %60 = add i32 %59, 10
  %61 = call ptr @proto_tree_add_item(ptr noundef %56, i32 noundef %57, ptr noundef %58, i32 noundef %60, i32 noundef 2, i32 noundef 0)
  %62 = load i32, ptr %9, align 4
  %63 = add i32 %62, 12
  store i32 %63, ptr %9, align 4
  br label %102

64:                                               ; preds = %24
  %65 = load ptr, ptr %7, align 8
  %66 = load i32, ptr @hf_nds_port, align 4
  %67 = load ptr, ptr %4, align 8
  %68 = load i32, ptr %9, align 4
  %69 = call ptr @proto_tree_add_item(ptr noundef %65, i32 noundef %66, ptr noundef %67, i32 noundef %68, i32 noundef 2, i32 noundef 0)
  %70 = load ptr, ptr %7, align 8
  %71 = load i32, ptr @hf_add_ref_udp, align 4
  %72 = load ptr, ptr %4, align 8
  %73 = load i32, ptr %9, align 4
  %74 = add i32 %73, 2
  %75 = call ptr @proto_tree_add_item(ptr noundef %70, i32 noundef %71, ptr noundef %72, i32 noundef %74, i32 noundef 4, i32 noundef 0)
  %76 = load i32, ptr %9, align 4
  %77 = add i32 %76, 6
  store i32 %77, ptr %9, align 4
  br label %102

78:                                               ; preds = %24
  %79 = load ptr, ptr %7, align 8
  %80 = load i32, ptr @hf_nds_port, align 4
  %81 = load ptr, ptr %4, align 8
  %82 = load i32, ptr %9, align 4
  %83 = call ptr @proto_tree_add_item(ptr noundef %79, i32 noundef %80, ptr noundef %81, i32 noundef %82, i32 noundef 2, i32 noundef 0)
  %84 = load ptr, ptr %7, align 8
  %85 = load i32, ptr @hf_add_ref_tcp, align 4
  %86 = load ptr, ptr %4, align 8
  %87 = load i32, ptr %9, align 4
  %88 = add i32 %87, 2
  %89 = call ptr @proto_tree_add_item(ptr noundef %84, i32 noundef %85, ptr noundef %86, i32 noundef %88, i32 noundef 4, i32 noundef 0)
  %90 = load i32, ptr %9, align 4
  %91 = add i32 %90, 6
  store i32 %91, ptr %9, align 4
  br label %102

92:                                               ; preds = %24
  %93 = load ptr, ptr %5, align 8
  %94 = load ptr, ptr %8, align 8
  %95 = call ptr @expert_add_info(ptr noundef %93, ptr noundef %94, ptr noundef @ei_ncp_address_type)
  %96 = load ptr, ptr %4, align 8
  %97 = load i32, ptr %9, align 4
  %98 = sub i32 %97, 4
  %99 = call i32 @tvb_get_letohl(ptr noundef %96, i32 noundef %98)
  %100 = load i32, ptr %9, align 4
  %101 = add i32 %100, %99
  store i32 %101, ptr %9, align 4
  br label %102

102:                                              ; preds = %92, %78, %64, %44
  %103 = load ptr, ptr %8, align 8
  %104 = load ptr, ptr %4, align 8
  %105 = load i32, ptr %9, align 4
  call void @proto_item_set_end(ptr noundef %103, ptr noundef %104, i32 noundef %105)
  %106 = load ptr, ptr %4, align 8
  %107 = load i32, ptr %9, align 4
  %108 = call i32 @tvb_captured_length_remaining(ptr noundef %106, i32 noundef %107)
  %109 = icmp slt i32 %108, 4
  br i1 %109, label %110, label %111

110:                                              ; preds = %102
  br label %115

111:                                              ; preds = %102
  br label %112

112:                                              ; preds = %111
  %113 = load i16, ptr %12, align 2
  %114 = add i16 %113, 1
  store i16 %114, ptr %12, align 2
  br label %19, !llvm.loop !27

115:                                              ; preds = %110, %19
  call void @llvm.lifetime.end.p0(i64 2, ptr %12) #13
  call void @llvm.lifetime.end.p0(i64 4, ptr %11) #13
  call void @llvm.lifetime.end.p0(i64 4, ptr %10) #13
  call void @llvm.lifetime.end.p0(i64 4, ptr %9) #13
  call void @llvm.lifetime.end.p0(i64 8, ptr %8) #13
  call void @llvm.lifetime.end.p0(i64 8, ptr %7) #13
  ret void
}