; Function Attrs: null_pointer_is_valid sspstrong uwtable
define internal fastcc void @dissect_ncp_123_17_reply(ptr noundef %0, ptr noundef %1, ptr noundef nonnull %2) unnamed_addr #0 {
  %4 = alloca ptr, align 8
  %5 = alloca ptr, align 8
  store volatile ptr %2, ptr %4, align 8
  call void @llvm.lifetime.start.p0(i64 8, ptr nonnull %5) #14
  %6 = tail call i32 @tvb_get_letohl(ptr noundef %0, i32 noundef 36)
  %.0..0..0..0.30 = load volatile ptr, ptr %4, align 8
  %7 = load i32, ptr @hf_ncp_items_in_packet, align 4
  %8 = tail call ptr @proto_tree_add_item(ptr noundef %.0..0..0..0.30, i32 noundef %7, ptr noundef %0, i32 noundef 36, i32 noundef 4, i32 noundef -2147483648)
  %.not50 = icmp eq i32 %6, 0
  br i1 %.not50, label %._crit_edge, label %.lr.ph

9:                                                ; preds = %49
  %10 = add i16 %.052, 1
  %11 = zext i16 %10 to i32
  %.not = icmp ult i32 %6, %11
  br i1 %.not, label %._crit_edge, label %.lr.ph, !llvm.loop !29

.lr.ph:                                           ; preds = %3, %9
  %12 = phi i32 [ %11, %9 ], [ 1, %3 ]
  %.052 = phi i16 [ %10, %9 ], [ 1, %3 ]
  %.04851 = phi i32 [ %.1, %9 ], [ 40, %3 ]
  %.0..0..0..0.31 = load volatile ptr, ptr %4, align 8
  %13 = load i32, ptr @ett_ncp, align 4
  %14 = call ptr (ptr, ptr, i32, i32, i32, ptr, ptr, ...) @proto_tree_add_subtree_format(ptr noundef %.0..0..0..0.31, ptr noundef %0, i32 noundef %.04851, i32 noundef -1, i32 noundef %13, ptr noundef nonnull %5, ptr noundef nonnull @.str.7556, i32 noundef %12)
  %15 = call zeroext i8 @tvb_get_uint8(ptr noundef %0, i32 noundef %.04851)
  %16 = load i32, ptr @hf_ncp_transport_type, align 4
  %17 = call ptr @proto_tree_add_item(ptr noundef %14, i32 noundef %16, ptr noundef %0, i32 noundef %.04851, i32 noundef 1, i32 noundef -2147483648)
  %18 = add i32 %.04851, 8
  switch i8 %15, label %43 [
    i8 1, label %19
    i8 5, label %29
    i8 6, label %36
  ]

19:                                               ; preds = %.lr.ph
  %20 = load i32, ptr @hf_nds_net, align 4
  %21 = call ptr @proto_tree_add_item(ptr noundef %14, i32 noundef %20, ptr noundef %0, i32 noundef %18, i32 noundef 4, i32 noundef 0)
  %22 = load i32, ptr @hf_nds_node, align 4
  %23 = add i32 %.04851, 12
  %24 = call ptr @proto_tree_add_item(ptr noundef %14, i32 noundef %22, ptr noundef %0, i32 noundef %23, i32 noundef 6, i32 noundef 0)
  %25 = load i32, ptr @hf_nds_socket, align 4
  %26 = add i32 %.04851, 18
  %27 = call ptr @proto_tree_add_item(ptr noundef %14, i32 noundef %25, ptr noundef %0, i32 noundef %26, i32 noundef 2, i32 noundef 0)
  %28 = add i32 %.04851, 20
  br label %49

29:                                               ; preds = %.lr.ph
  %30 = load i32, ptr @hf_nds_port, align 4
  %31 = call ptr @proto_tree_add_item(ptr noundef %14, i32 noundef %30, ptr noundef %0, i32 noundef %18, i32 noundef 2, i32 noundef 0)
  %32 = load i32, ptr @hf_add_ref_udp, align 4
  %33 = add i32 %.04851, 10
  %34 = call ptr @proto_tree_add_item(ptr noundef %14, i32 noundef %32, ptr noundef %0, i32 noundef %33, i32 noundef 4, i32 noundef 0)
  %35 = add i32 %.04851, 14
  br label %49

36:                                               ; preds = %.lr.ph
  %37 = load i32, ptr @hf_nds_port, align 4
  %38 = call ptr @proto_tree_add_item(ptr noundef %14, i32 noundef %37, ptr noundef %0, i32 noundef %18, i32 noundef 2, i32 noundef 0)
  %39 = load i32, ptr @hf_add_ref_tcp, align 4
  %40 = add i32 %.04851, 10
  %41 = call ptr @proto_tree_add_item(ptr noundef %14, i32 noundef %39, ptr noundef %0, i32 noundef %40, i32 noundef 4, i32 noundef 0)
  %42 = add i32 %.04851, 14
  br label %49

43:                                               ; preds = %.lr.ph
  %44 = load ptr, ptr %5, align 8
  %45 = call ptr @expert_add_info(ptr noundef %1, ptr noundef %44, ptr noundef nonnull @ei_ncp_address_type)
  %46 = add i32 %.04851, 4
  %47 = call i32 @tvb_get_letohl(ptr noundef %0, i32 noundef %46)
  %48 = add i32 %47, %18
  br label %49

49:                                               ; preds = %43, %36, %29, %19
  %.1 = phi i32 [ %48, %43 ], [ %42, %36 ], [ %35, %29 ], [ %28, %19 ]
  %50 = load ptr, ptr %5, align 8
  call void @proto_item_set_end(ptr noundef %50, ptr noundef %0, i32 noundef %.1)
  %51 = call i32 @tvb_captured_length_remaining(ptr noundef %0, i32 noundef %.1)
  %52 = icmp slt i32 %51, 4
  br i1 %52, label %._crit_edge, label %9

._crit_edge:                                      ; preds = %9, %49, %3
  call void @llvm.lifetime.end.p0(i64 8, ptr nonnull %5) #14
  ret void
}